; Function Attrs: mustprogress nofree norecurse nosync nounwind willreturn memory(read, inaccessiblemem: none) uwtable
define hidden noundef ptr @_ZNK3ade20MemoryDescriptorView13getDescriptorEv(ptr noundef nonnull readonly align 8 captures(none) dereferenceable(96) %0) local_unnamed_addr #12 align 2 {
  %2 = getelementptr inbounds nuw i8, ptr %0, i64 8
  %3 = load ptr, ptr %2, align 8, !tbaa !20
  %.not = icmp eq ptr %3, null
  br i1 %.not, label %_ZN3ade20MemoryDescriptorView13getDescriptorEv.exit, label %tailrecurse.i

tailrecurse.i:                                    ; preds = %1, %tailrecurse.i
  %.tr.i = phi ptr [ %5, %tailrecurse.i ], [ %3, %1 ]
  %4 = getelementptr inbounds nuw i8, ptr %.tr.i, i64 8
  %5 = load ptr, ptr %4, align 8, !tbaa !20
  %.not.i = icmp eq ptr %5, null
  br i1 %.not.i, label %_ZN3ade20MemoryDescriptorView13getDescriptorEv.exit, label %tailrecurse.i

_ZN3ade20MemoryDescriptorView13getDescriptorEv.exit: ; preds = %tailrecurse.i, %1
  %.0.in = phi ptr [ %0, %1 ], [ %.tr.i, %tailrecurse.i ]
  %.0 = load ptr, ptr %.0.in, align 8, !tbaa !19
  ret ptr %.0
}